target datalayout = "e-m:e-p270:32:32-p271:32:32-p272:64:64-i64:64-i128:128-f80:128-n8:16:32:64-S128"
target triple = "x86_64-pc-linux-gnu"

%struct.SDL_Palette = type { i32, ptr, i32, i32 }
%struct.SDL_Surface = type { i32, i32, i32, i32, i32, ptr, i32, ptr, i32, i32, ptr, i32, ptr, i32, ptr, i32, %struct.SDL_Rect, %struct.SDL_BlitMap }
%struct.SDL_Rect = type { i32, i32, i32, i32 }
%struct.SDL_BlitMap = type { i32, ptr, ptr, %struct.SDL_BlitInfo, i32, i32 }
%struct.SDL_BlitInfo = type { ptr, ptr, i32, i32, i32, i32, ptr, ptr, i32, i32, i32, i32, ptr, ptr, ptr, ptr, ptr, ptr, i32, i32, i8, i8, i8, i8 }

; Function Attrs: nounwind uwtable
define hidden zeroext i1 @SDL_ValidateMap(ptr noundef %0, ptr noundef %1) #0 {
  %3 = alloca i1, align 1
  %4 = alloca ptr, align 8
  %5 = alloca ptr, align 8
  %6 = alloca ptr, align 8
  %7 = alloca i32, align 4
  store ptr %0, ptr %4, align 8
  store ptr %1, ptr %5, align 8
  call void @llvm.lifetime.start.p0(i64 8, ptr %6) #7
  %8 = load ptr, ptr %4, align 8
  %9 = getelementptr inbounds nuw %struct.SDL_Surface, ptr %8, i32 0, i32 17
  store ptr %9, ptr %6, align 8
  %10 = load ptr, ptr %6, align 8
  %11 = getelementptr inbounds nuw %struct.SDL_BlitMap, ptr %10, i32 0, i32 3
  %12 = getelementptr inbounds nuw %struct.SDL_BlitInfo, ptr %11, i32 0, i32 14
  %13 = load ptr, ptr %12, align 8
  %14 = load ptr, ptr %5, align 8
  %15 = getelementptr inbounds nuw %struct.SDL_Surface, ptr %14, i32 0, i32 10
  %16 = load ptr, ptr %15, align 8
  %17 = icmp ne ptr %13, %16
  br i1 %17, label %57, label %18

18:                                               ; preds = %2
  %19 = load ptr, ptr %6, align 8
  %20 = getelementptr inbounds nuw %struct.SDL_BlitMap, ptr %19, i32 0, i32 3
  %21 = getelementptr inbounds nuw %struct.SDL_BlitInfo, ptr %20, i32 0, i32 15
  %22 = load ptr, ptr %21, align 8
  %23 = load ptr, ptr %5, align 8
  %24 = getelementptr inbounds nuw %struct.SDL_Surface, ptr %23, i32 0, i32 12
  %25 = load ptr, ptr %24, align 8
  %26 = icmp ne ptr %22, %25
  br i1 %26, label %57, label %27

27:                                               ; preds = %18
  %28 = load ptr, ptr %5, align 8
  %29 = getelementptr inbounds nuw %struct.SDL_Surface, ptr %28, i32 0, i32 12
  %30 = load ptr, ptr %29, align 8
  %31 = icmp ne ptr %30, null
  br i1 %31, label %32, label %42

32:                                               ; preds = %27
  %33 = load ptr, ptr %6, align 8
  %34 = getelementptr inbounds nuw %struct.SDL_BlitMap, ptr %33, i32 0, i32 4
  %35 = load i32, ptr %34, align 8
  %36 = load ptr, ptr %5, align 8
  %37 = getelementptr inbounds nuw %struct.SDL_Surface, ptr %36, i32 0, i32 12
  %38 = load ptr, ptr %37, align 8
  %39 = getelementptr inbounds nuw %struct.SDL_Palette, ptr %38, i32 0, i32 2
  %40 = load i32, ptr %39, align 8
  %41 = icmp ne i32 %35, %40
  br i1 %41, label %57, label %42

42:                                               ; preds = %32, %27
  %43 = load ptr, ptr %4, align 8
  %44 = getelementptr inbounds nuw %struct.SDL_Surface, ptr %43, i32 0, i32 12
  %45 = load ptr, ptr %44, align 8
  %46 = icmp ne ptr %45, null
  br i1 %46, label %47, label %63

47:                                               ; preds = %42
  %48 = load ptr, ptr %6, align 8
  %49 = getelementptr inbounds nuw %struct.SDL_BlitMap, ptr %48, i32 0, i32 5
  %50 = load i32, ptr %49, align 4
  %51 = load ptr, ptr %4, align 8
  %52 = getelementptr inbounds nuw %struct.SDL_Surface, ptr %51, i32 0, i32 12
  %53 = load ptr, ptr %52, align 8
  %54 = getelementptr inbounds nuw %struct.SDL_Palette, ptr %53, i32 0, i32 2
  %55 = load i32, ptr %54, align 8
  %56 = icmp ne i32 %50, %55
  br i1 %56, label %57, label %63

57:                                               ; preds = %47, %32, %18, %2
  %58 = load ptr, ptr %4, align 8
  %59 = load ptr, ptr %5, align 8
  %60 = call zeroext i1 @SDL_MapSurface(ptr noundef %58, ptr noundef %59)
  br i1 %60, label %62, label %61

61:                                               ; preds = %57
  store i1 false, ptr %3, align 1
  store i32 1, ptr %7, align 4
  br label %69

62:                                               ; preds = %57
  br label %68

63:                                               ; preds = %47, %42
  %64 = load ptr, ptr %5, align 8
  %65 = load ptr, ptr %6, align 8
  %66 = getelementptr inbounds nuw %struct.SDL_BlitMap, ptr %65, i32 0, i32 3
  %67 = getelementptr inbounds nuw %struct.SDL_BlitInfo, ptr %66, i32 0, i32 6
  store ptr %64, ptr %67, align 8
  br label %68

68:                                               ; preds = %63, %62
  store i1 true, ptr %3, align 1
  store i32 1, ptr %7, align 4
  br label %69

69:                                               ; preds = %68, %61
  call void @llvm.lifetime.end.p0(i64 8, ptr %6) #7
  %70 = load i1, ptr %3, align 1
  ret i1 %70
}