; Function Attrs: nounwind uwtable
define hidden noundef zeroext i1 @SDL_ValidateMap(ptr noundef %0, ptr noundef %1) local_unnamed_addr #1 {
  %3 = getelementptr inbounds nuw i8, ptr %0, i64 224
  %4 = load ptr, ptr %3, align 8
  %5 = getelementptr inbounds nuw i8, ptr %1, i64 56
  %6 = load ptr, ptr %5, align 8
  %.not = icmp eq ptr %4, %6
  br i1 %.not, label %7, label %26

7:                                                ; preds = %2
  %8 = getelementptr inbounds nuw i8, ptr %0, i64 232
  %9 = load ptr, ptr %8, align 8
  %10 = getelementptr inbounds nuw i8, ptr %1, i64 72
  %11 = load ptr, ptr %10, align 8
  %.not18 = icmp eq ptr %9, %11
  br i1 %.not18, label %12, label %26

12:                                               ; preds = %7
  %.not19 = icmp eq ptr %9, null
  br i1 %.not19, label %18, label %13

13:                                               ; preds = %12
  %14 = getelementptr inbounds nuw i8, ptr %0, i64 272
  %15 = load i32, ptr %14, align 8
  %16 = getelementptr inbounds nuw i8, ptr %11, i64 16
  %17 = load i32, ptr %16, align 8
  %.not20 = icmp eq i32 %15, %17
  br i1 %.not20, label %18, label %26

18:                                               ; preds = %13, %12
  %19 = getelementptr inbounds nuw i8, ptr %0, i64 72
  %20 = load ptr, ptr %19, align 8
  %.not21 = icmp eq ptr %20, null
  br i1 %.not21, label %28, label %21

21:                                               ; preds = %18
  %22 = getelementptr inbounds nuw i8, ptr %0, i64 276
  %23 = load i32, ptr %22, align 4
  %24 = getelementptr inbounds nuw i8, ptr %20, i64 16
  %25 = load i32, ptr %24, align 8
  %.not22 = icmp eq i32 %23, %25
  br i1 %.not22, label %28, label %26

26:                                               ; preds = %21, %13, %7, %2
  %27 = tail call zeroext i1 @SDL_MapSurface(ptr noundef nonnull %0, ptr noundef nonnull %1)
  br i1 %27, label %30, label %31

28:                                               ; preds = %21, %18
  %29 = getelementptr inbounds nuw i8, ptr %0, i64 176
  store ptr %1, ptr %29, align 8
  br label %30

30:                                               ; preds = %26, %28
  br label %31

31:                                               ; preds = %26, %30
  %.0 = phi i1 [ true, %30 ], [ false, %26 ]
  ret i1 %.0
}